target datalayout = "e-m:e-p270:32:32-p271:32:32-p272:64:64-i64:64-i128:128-f80:128-n8:16:32:64-S128"
target triple = "x86_64-pc-linux-gnu"

; Function Attrs: inlinehint mustprogress nounwind uwtable
define linkonce_odr noundef double @_ZSt3absd(double noundef %0) #3 comdat {
  %2 = alloca double, align 8
  store double %0, ptr %2, align 8, !tbaa !47
  %3 = load double, ptr %2, align 8, !tbaa !47
  %4 = call double @llvm.fabs.f64(double %3)
  ret double %4
}

; Function Attrs: inlinehint mustprogress nounwind uwtable
define internal noundef double @_ZN2cvL6normL1IidEET0_PKT_S4_i(ptr noundef %0, ptr noundef %1, i32 noundef %2) #3 {
  %4 = alloca ptr, align 8
  %5 = alloca ptr, align 8
  %6 = alloca i32, align 4
  %7 = alloca double, align 8
  %8 = alloca i32, align 4
  %9 = alloca double, align 8
  store ptr %0, ptr %4, align 8, !tbaa !11
  store ptr %1, ptr %5, align 8, !tbaa !11
  store i32 %2, ptr %6, align 4, !tbaa !3
  call void @llvm.lifetime.start.p0(i64 8, ptr %7) #15
  store double 0.000000e+00, ptr %7, align 8, !tbaa !47
  call void @llvm.lifetime.start.p0(i64 4, ptr %8) #15
  store i32 0, ptr %8, align 4, !tbaa !3
  br label %10

10:                                               ; preds = %31, %3
  %11 = load i32, ptr %8, align 4, !tbaa !3
  %12 = load i32, ptr %6, align 4, !tbaa !3
  %13 = icmp slt i32 %11, %12
  br i1 %13, label %14, label %34

14:                                               ; preds = %10
  call void @llvm.lifetime.start.p0(i64 8, ptr %9) #15
  %15 = load ptr, ptr %4, align 8, !tbaa !11
  %16 = load i32, ptr %8, align 4, !tbaa !3
  %17 = sext i32 %16 to i64
  %18 = getelementptr inbounds i32, ptr %15, i64 %17
  %19 = load i32, ptr %18, align 4, !tbaa !3
  %20 = load ptr, ptr %5, align 8, !tbaa !11
  %21 = load i32, ptr %8, align 4, !tbaa !3
  %22 = sext i32 %21 to i64
  %23 = getelementptr inbounds i32, ptr %20, i64 %22
  %24 = load i32, ptr %23, align 4, !tbaa !3
  %25 = sub nsw i32 %19, %24
  %26 = sitofp i32 %25 to double
  store double %26, ptr %9, align 8, !tbaa !47
  %27 = load double, ptr %9, align 8, !tbaa !47
  %28 = call noundef double @_ZSt3absd(double noundef %27)
  %29 = load double, ptr %7, align 8, !tbaa !47
  %30 = fadd double %29, %28
  store double %30, ptr %7, align 8, !tbaa !47
  call void @llvm.lifetime.end.p0(i64 8, ptr %9) #15
  br label %31

31:                                               ; preds = %14
  %32 = load i32, ptr %8, align 4, !tbaa !3
  %33 = add nsw i32 %32, 1
  store i32 %33, ptr %8, align 4, !tbaa !3
  br label %10, !llvm.loop !244

34:                                               ; preds = %10
  %35 = load double, ptr %7, align 8, !tbaa !47
  call void @llvm.lifetime.end.p0(i64 4, ptr %8) #15
  call void @llvm.lifetime.end.p0(i64 8, ptr %7) #15
  ret double %35
}

; Function Attrs: mustprogress uwtable
define linkonce_odr hidden noundef i32 @_ZN2cv11normDiffL1_IidEEiPKT_S3_PKhPT0_ii(ptr noundef %0, ptr noundef %1, ptr noundef %2, ptr noundef %3, i32 noundef %4, i32 noundef %5) #0 comdat {
  %7 = alloca ptr, align 8
  %8 = alloca ptr, align 8
  %9 = alloca ptr, align 8
  %10 = alloca ptr, align 8
  %11 = alloca i32, align 4
  %12 = alloca i32, align 4
  %13 = alloca double, align 8
  %14 = alloca i32, align 4
  %15 = alloca i32, align 4
  %16 = alloca i32, align 4
  store ptr %0, ptr %7, align 8, !tbaa !11
  store ptr %1, ptr %8, align 8, !tbaa !11
  store ptr %2, ptr %9, align 8, !tbaa !9
  store ptr %3, ptr %10, align 8, !tbaa !17
  store i32 %4, ptr %11, align 4, !tbaa !3
  store i32 %5, ptr %12, align 4, !tbaa !3
  call void @llvm.lifetime.start.p0(i64 8, ptr %13) #15
  %17 = load ptr, ptr %10, align 8, !tbaa !17
  %18 = load double, ptr %17, align 8, !tbaa !47
  store double %18, ptr %13, align 8, !tbaa !47
  %19 = load ptr, ptr %9, align 8, !tbaa !9
  %20 = icmp ne ptr %19, null
  br i1 %20, label %30, label %21

21:                                               ; preds = %6
  %22 = load ptr, ptr %7, align 8, !tbaa !11
  %23 = load ptr, ptr %8, align 8, !tbaa !11
  %24 = load i32, ptr %11, align 4, !tbaa !3
  %25 = load i32, ptr %12, align 4, !tbaa !3
  %26 = mul nsw i32 %24, %25
  %27 = call noundef double @_ZN2cvL6normL1IidEET0_PKT_S4_i(ptr noundef %22, ptr noundef %23, i32 noundef %26)
  %28 = load double, ptr %13, align 8, !tbaa !47
  %29 = fadd double %28, %27
  store double %29, ptr %13, align 8, !tbaa !47
  br label %82

30:                                               ; preds = %6
  call void @llvm.lifetime.start.p0(i64 4, ptr %14) #15
  store i32 0, ptr %14, align 4, !tbaa !3
  br label %31

31:                                               ; preds = %70, %30
  %32 = load i32, ptr %14, align 4, !tbaa !3
  %33 = load i32, ptr %11, align 4, !tbaa !3
  %34 = icmp slt i32 %32, %33
  br i1 %34, label %36, label %35

35:                                               ; preds = %31
  store i32 2, ptr %15, align 4
  call void @llvm.lifetime.end.p0(i64 4, ptr %14) #15
  br label %81

36:                                               ; preds = %31
  %37 = load ptr, ptr %9, align 8, !tbaa !9
  %38 = load i32, ptr %14, align 4, !tbaa !3
  %39 = sext i32 %38 to i64
  %40 = getelementptr inbounds i8, ptr %37, i64 %39
  %41 = load i8, ptr %40, align 1, !tbaa !24
  %42 = icmp ne i8 %41, 0
  br i1 %42, label %43, label %69

43:                                               ; preds = %36
  call void @llvm.lifetime.start.p0(i64 4, ptr %16) #15
  store i32 0, ptr %16, align 4, !tbaa !3
  br label %44

44:                                               ; preds = %65, %43
  %45 = load i32, ptr %16, align 4, !tbaa !3
  %46 = load i32, ptr %12, align 4, !tbaa !3
  %47 = icmp slt i32 %45, %46
  br i1 %47, label %49, label %48

48:                                               ; preds = %44
  store i32 5, ptr %15, align 4
  call void @llvm.lifetime.end.p0(i64 4, ptr %16) #15
  br label %68

49:                                               ; preds = %44
  %50 = load ptr, ptr %7, align 8, !tbaa !11
  %51 = load i32, ptr %16, align 4, !tbaa !3
  %52 = sext i32 %51 to i64
  %53 = getelementptr inbounds i32, ptr %50, i64 %52
  %54 = load i32, ptr %53, align 4, !tbaa !3
  %55 = load ptr, ptr %8, align 8, !tbaa !11
  %56 = load i32, ptr %16, align 4, !tbaa !3
  %57 = sext i32 %56 to i64
  %58 = getelementptr inbounds i32, ptr %55, i64 %57
  %59 = load i32, ptr %58, align 4, !tbaa !3
  %60 = sub nsw i32 %54, %59
  %61 = call i32 @llvm.abs.i32(i32 %60, i1 true)
  %62 = sitofp i32 %61 to double
  %63 = load double, ptr %13, align 8, !tbaa !47
  %64 = fadd double %63, %62
  store double %64, ptr %13, align 8, !tbaa !47
  br label %65

65:                                               ; preds = %49
  %66 = load i32, ptr %16, align 4, !tbaa !3
  %67 = add nsw i32 %66, 1
  store i32 %67, ptr %16, align 4, !tbaa !3
  br label %44, !llvm.loop !242

68:                                               ; preds = %48
  br label %69

69:                                               ; preds = %68, %36
  br label %70

70:                                               ; preds = %69
  %71 = load i32, ptr %14, align 4, !tbaa !3
  %72 = add nsw i32 %71, 1
  store i32 %72, ptr %14, align 4, !tbaa !3
  %73 = load i32, ptr %12, align 4, !tbaa !3
  %74 = load ptr, ptr %7, align 8, !tbaa !11
  %75 = sext i32 %73 to i64
  %76 = getelementptr inbounds i32, ptr %74, i64 %75
  store ptr %76, ptr %7, align 8, !tbaa !11
  %77 = load i32, ptr %12, align 4, !tbaa !3
  %78 = load ptr, ptr %8, align 8, !tbaa !11
  %79 = sext i32 %77 to i64
  %80 = getelementptr inbounds i32, ptr %78, i64 %79
  store ptr %80, ptr %8, align 8, !tbaa !11
  br label %31, !llvm.loop !243

81:                                               ; preds = %35
  br label %82

82:                                               ; preds = %81, %21
  %83 = load double, ptr %13, align 8, !tbaa !47
  %84 = load ptr, ptr %10, align 8, !tbaa !17
  store double %83, ptr %84, align 8, !tbaa !47
  store i32 1, ptr %15, align 4
  call void @llvm.lifetime.end.p0(i64 8, ptr %13) #15
  ret i32 0
}

; Function Attrs: mustprogress uwtable
define internal noundef i32 @_ZN2cvL14normDiffL1_32sEPKiS1_PKhPdii(ptr noundef %0, ptr noundef %1, ptr noundef %2, ptr noundef %3, i32 noundef %4, i32 noundef %5) #0 {
  %7 = alloca ptr, align 8
  %8 = alloca ptr, align 8
  %9 = alloca ptr, align 8
  %10 = alloca ptr, align 8
  %11 = alloca i32, align 4
  %12 = alloca i32, align 4
  store ptr %0, ptr %7, align 8, !tbaa !11
  store ptr %1, ptr %8, align 8, !tbaa !11
  store ptr %2, ptr %9, align 8, !tbaa !9
  store ptr %3, ptr %10, align 8, !tbaa !17
  store i32 %4, ptr %11, align 4, !tbaa !3
  store i32 %5, ptr %12, align 4, !tbaa !3
  %13 = load ptr, ptr %7, align 8, !tbaa !11
  %14 = load ptr, ptr %8, align 8, !tbaa !11
  %15 = load ptr, ptr %9, align 8, !tbaa !9
  %16 = load ptr, ptr %10, align 8, !tbaa !17
  %17 = load i32, ptr %11, align 4, !tbaa !3
  %18 = load i32, ptr %12, align 4, !tbaa !3
  %19 = call noundef i32 @_ZN2cv11normDiffL1_IidEEiPKT_S3_PKhPT0_ii(ptr noundef %13, ptr noundef %14, ptr noundef %15, ptr noundef %16, i32 noundef %17, i32 noundef %18)
  ret i32 %19
}